target datalayout = "e-m:e-p270:32:32-p271:32:32-p272:64:64-i64:64-i128:128-f80:128-n8:16:32:64-S128"
target triple = "x86_64-unknown-linux-gnu"

; Function Attrs: mustprogress nounwind uwtable
define internal noundef signext i8 @_ZL9U_SUCCESS10UErrorCode(i32 noundef %code) #2 {
entry:
  %code.addr = alloca i32, align 4
  store i32 %code, ptr %code.addr, align 4
  %0 = load i32, ptr %code.addr, align 4
  %cmp = icmp sle i32 %0, 0
  %conv = zext i1 %cmp to i8
  ret i8 %conv
}

; Function Attrs: mustprogress uwtable
define internal noundef signext i8 @_ZL11isNormInertRK14BinaryPropertyi9UProperty(ptr noundef nonnull align 8 dereferenceable(16) %0, i32 noundef %c, i32 noundef %which) #0 {
entry:
  %.addr = alloca ptr, align 8
  %c.addr = alloca i32, align 4
  %which.addr = alloca i32, align 4
  %errorCode = alloca i32, align 4
  %norm2 = alloca ptr, align 8
  store ptr %0, ptr %.addr, align 8
  store i32 %c, ptr %c.addr, align 4
  store i32 %which, ptr %which.addr, align 4
  store i32 0, ptr %errorCode, align 4
  %1 = load i32, ptr %which.addr, align 4
  %sub = sub nsw i32 %1, 37
  %add = add nsw i32 %sub, 2
  %call = call noundef ptr @_ZN6icu_7518Normalizer2Factory11getInstanceE18UNormalizationModeR10UErrorCode(i32 noundef %add, ptr noundef nonnull align 4 dereferenceable(4) %errorCode)
  store ptr %call, ptr %norm2, align 8
  %2 = load i32, ptr %errorCode, align 4
  %call1 = call noundef signext i8 @_ZL9U_SUCCESS10UErrorCode(i32 noundef %2)
  %tobool = icmp ne i8 %call1, 0
  br i1 %tobool, label %land.rhs, label %land.end

land.rhs:                                         ; preds = %entry
  %3 = load ptr, ptr %norm2, align 8
  %4 = load i32, ptr %c.addr, align 4
  %vtable = load ptr, ptr %3, align 8
  %vfn = getelementptr inbounds ptr, ptr %vtable, i64 17
  %5 = load ptr, ptr %vfn, align 8
  %call2 = call noundef signext i8 %5(ptr noundef nonnull align 8 dereferenceable(8) %3, i32 noundef %4)
  %tobool3 = icmp ne i8 %call2, 0
  br label %land.end

land.end:                                         ; preds = %land.rhs, %entry
  %6 = phi i1 [ false, %entry ], [ %tobool3, %land.rhs ]
  %conv = zext i1 %6 to i8
  ret i8 %conv
}