; Function Attrs: mustprogress uwtable
define internal noundef signext i8 @_ZL11isNormInertRK14BinaryPropertyi9UProperty(ptr nocapture nonnull readnone align 8 %0, i32 noundef %c, i32 noundef %which) #0 {
entry:
  %errorCode = alloca i32, align 4
  store i32 0, ptr %errorCode, align 4
  %add = add nsw i32 %which, -35
  %call = call noundef ptr @_ZN6icu_7518Normalizer2Factory11getInstanceE18UNormalizationModeR10UErrorCode(i32 noundef %add, ptr noundef nonnull align 4 dereferenceable(4) %errorCode)
  %1 = load i32, ptr %errorCode, align 4
  %cmp.i = icmp sgt i32 %1, 0
  br i1 %cmp.i, label %land.end, label %land.rhs

land.rhs:                                         ; preds = %entry
  %vtable = load ptr, ptr %call, align 8
  %vfn = getelementptr inbounds i8, ptr %vtable, i64 136
  %2 = load ptr, ptr %vfn, align 8
  %call2 = call noundef signext i8 %2(ptr noundef nonnull align 8 dereferenceable(8) %call, i32 noundef %c)
  %tobool3 = icmp ne i8 %call2, 0
  %3 = zext i1 %tobool3 to i8
  br label %land.end

land.end:                                         ; preds = %land.rhs, %entry
  %conv = phi i8 [ 0, %entry ], [ %3, %land.rhs ]
  ret i8 %conv
}